target datalayout = "e-m:e-p270:32:32-p271:32:32-p272:64:64-i64:64-i128:128-f80:128-n8:16:32:64-S128"
target triple = "x86_64-pc-linux-gnu"

%struct.cli_clamav_intel = type { ptr, ptr, ptr, i32, i32, i32, i32, i64, ptr, %union.pthread_mutex_t }
%union.pthread_mutex_t = type { %struct.__pthread_mutex_s }
%struct.__pthread_mutex_s = type { i32, i32, i32, i32, i32, i16, i16, %struct.__pthread_internal_list }
%struct.__pthread_internal_list = type { ptr, ptr }
%struct.cli_flagged_sample = type { ptr, [16 x i8], i32, i32, ptr, ptr, ptr }

@.str.17 = private unnamed_addr constant [59 x i8] c"clamav_stats_get_size: locking mutex failed (err: %d): %s\0A\00", align 1
@.str.18 = private unnamed_addr constant [61 x i8] c"clamav_stats_get_size: unlocking mutex failed (err: %d): %s\0A\00", align 1

; Function Attrs: nounwind uwtable
define i64 @clamav_stats_get_size(ptr noundef %0) #0 {
  %2 = alloca i64, align 8
  %3 = alloca ptr, align 8
  %4 = alloca ptr, align 8
  %5 = alloca ptr, align 8
  %6 = alloca i64, align 8
  %7 = alloca i64, align 8
  %8 = alloca i32, align 4
  store ptr %0, ptr %3, align 8
  %9 = load ptr, ptr %3, align 8
  store ptr %9, ptr %4, align 8
  %10 = load ptr, ptr %4, align 8
  %11 = icmp ne ptr %10, null
  br i1 %11, label %13, label %12

12:                                               ; preds = %1
  store i64 0, ptr %2, align 8
  br label %82

13:                                               ; preds = %1
  store i64 96, ptr %6, align 8
  %14 = load ptr, ptr %4, align 8
  %15 = getelementptr inbounds %struct.cli_clamav_intel, ptr %14, i32 0, i32 9
  %16 = call i32 @pthread_mutex_lock(ptr noundef %15) #7
  store i32 %16, ptr %8, align 4
  %17 = load i32, ptr %8, align 4
  %18 = icmp ne i32 %17, 0
  br i1 %18, label %19, label %24

19:                                               ; preds = %13
  %20 = load i32, ptr %8, align 4
  %21 = load i32, ptr %8, align 4
  %22 = call ptr @strerror(i32 noundef %21) #7
  call void (ptr, ...) @cli_warnmsg(ptr noundef @.str.17, i32 noundef %20, ptr noundef %22)
  %23 = load i64, ptr %6, align 8
  store i64 %23, ptr %2, align 8
  br label %82

24:                                               ; preds = %13
  %25 = load ptr, ptr %4, align 8
  %26 = getelementptr inbounds %struct.cli_clamav_intel, ptr %25, i32 0, i32 2
  %27 = load ptr, ptr %26, align 8
  store ptr %27, ptr %5, align 8
  br label %28

28:                                               ; preds = %66, %24
  %29 = load ptr, ptr %5, align 8
  %30 = icmp ne ptr %29, null
  br i1 %30, label %31, label %70

31:                                               ; preds = %28
  %32 = load i64, ptr %6, align 8
  %33 = add i64 %32, 56
  store i64 %33, ptr %6, align 8
  %34 = load ptr, ptr %5, align 8
  %35 = getelementptr inbounds %struct.cli_flagged_sample, ptr %34, i32 0, i32 0
  %36 = load ptr, ptr %35, align 8
  %37 = icmp ne ptr %36, null
  br i1 %37, label %38, label %65

38:                                               ; preds = %31
  store i64 0, ptr %7, align 8
  br label %39

39:                                               ; preds = %57, %38
  %40 = load ptr, ptr %5, align 8
  %41 = getelementptr inbounds %struct.cli_flagged_sample, ptr %40, i32 0, i32 0
  %42 = load ptr, ptr %41, align 8
  %43 = load i64, ptr %7, align 8
  %44 = getelementptr inbounds ptr, ptr %42, i64 %43
  %45 = load ptr, ptr %44, align 8
  %46 = icmp ne ptr %45, null
  br i1 %46, label %47, label %60

47:                                               ; preds = %39
  %48 = load ptr, ptr %5, align 8
  %49 = getelementptr inbounds %struct.cli_flagged_sample, ptr %48, i32 0, i32 0
  %50 = load ptr, ptr %49, align 8
  %51 = load i64, ptr %7, align 8
  %52 = getelementptr inbounds ptr, ptr %50, i64 %51
  %53 = load ptr, ptr %52, align 8
  %54 = call i64 @strlen(ptr noundef %53) #10
  %55 = load i64, ptr %6, align 8
  %56 = add i64 %55, %54
  store i64 %56, ptr %6, align 8
  br label %57

57:                                               ; preds = %47
  %58 = load i64, ptr %7, align 8
  %59 = add i64 %58, 1
  store i64 %59, ptr %7, align 8
  br label %39

60:                                               ; preds = %39
  %61 = load i64, ptr %7, align 8
  %62 = mul i64 8, %61
  %63 = load i64, ptr %6, align 8
  %64 = add i64 %63, %62
  store i64 %64, ptr %6, align 8
  br label %65

65:                                               ; preds = %60, %31
  br label %66

66:                                               ; preds = %65
  %67 = load ptr, ptr %5, align 8
  %68 = getelementptr inbounds %struct.cli_flagged_sample, ptr %67, i32 0, i32 6
  %69 = load ptr, ptr %68, align 8
  store ptr %69, ptr %5, align 8
  br label %28

70:                                               ; preds = %28
  %71 = load ptr, ptr %4, align 8
  %72 = getelementptr inbounds %struct.cli_clamav_intel, ptr %71, i32 0, i32 9
  %73 = call i32 @pthread_mutex_unlock(ptr noundef %72) #7
  store i32 %73, ptr %8, align 4
  %74 = load i32, ptr %8, align 4
  %75 = icmp ne i32 %74, 0
  br i1 %75, label %76, label %80

76:                                               ; preds = %70
  %77 = load i32, ptr %8, align 4
  %78 = load i32, ptr %8, align 4
  %79 = call ptr @strerror(i32 noundef %78) #7
  call void (ptr, ...) @cli_warnmsg(ptr noundef @.str.18, i32 noundef %77, ptr noundef %79)
  br label %80

80:                                               ; preds = %76, %70
  %81 = load i64, ptr %6, align 8
  store i64 %81, ptr %2, align 8
  br label %82

82:                                               ; preds = %80, %19, %12
  %83 = load i64, ptr %2, align 8
  ret i64 %83
}