; Function Attrs: nounwind uwtable
define i64 @clamav_stats_get_size(ptr noundef %0) local_unnamed_addr #0 {
  %.not = icmp eq ptr %0, null
  br i1 %.not, label %25, label %2

2:                                                ; preds = %1
  %3 = getelementptr inbounds nuw i8, ptr %0, i64 56
  %4 = tail call i32 @pthread_mutex_lock(ptr noundef nonnull %3) #13
  %.not32 = icmp eq i32 %4, 0
  br i1 %.not32, label %7, label %5

5:                                                ; preds = %2
  %6 = tail call ptr @strerror(i32 noundef %4) #13
  tail call void (ptr, ...) @cli_warnmsg(ptr noundef nonnull @.str.17, i32 noundef %4, ptr noundef %6) #13
  br label %25

7:                                                ; preds = %2
  %8 = getelementptr inbounds nuw i8, ptr %0, i64 16
  %.02641 = load ptr, ptr %8, align 8
  %.not3342 = icmp eq ptr %.02641, null
  br i1 %.not3342, label %._crit_edge47, label %.lr.ph46

.lr.ph46:                                         ; preds = %7, %20
  %.02644 = phi ptr [ %.026, %20 ], [ %.02641, %7 ]
  %.02543 = phi i64 [ %.2, %20 ], [ 96, %7 ]
  %9 = add i64 %.02543, 56
  %10 = load ptr, ptr %.02644, align 8
  %.not35 = icmp eq ptr %10, null
  br i1 %.not35, label %20, label %.preheader

.preheader:                                       ; preds = %.lr.ph46
  %11 = load ptr, ptr %10, align 8
  %.not3637 = icmp eq ptr %11, null
  br i1 %.not3637, label %._crit_edge, label %.lr.ph

.lr.ph:                                           ; preds = %.preheader, %.lr.ph
  %12 = phi ptr [ %17, %.lr.ph ], [ %11, %.preheader ]
  %.039 = phi i64 [ %15, %.lr.ph ], [ 0, %.preheader ]
  %.138 = phi i64 [ %14, %.lr.ph ], [ %9, %.preheader ]
  %13 = tail call i64 @strlen(ptr noundef nonnull dereferenceable(1) %12) #16
  %14 = add i64 %13, %.138
  %15 = add i64 %.039, 1
  %16 = getelementptr inbounds ptr, ptr %10, i64 %15
  %17 = load ptr, ptr %16, align 8
  %.not36 = icmp eq ptr %17, null
  br i1 %.not36, label %._crit_edge.loopexit, label %.lr.ph

._crit_edge.loopexit:                             ; preds = %.lr.ph
  %18 = shl i64 %15, 3
  br label %._crit_edge

._crit_edge:                                      ; preds = %._crit_edge.loopexit, %.preheader
  %.1.lcssa = phi i64 [ %9, %.preheader ], [ %14, %._crit_edge.loopexit ]
  %.0.lcssa = phi i64 [ 0, %.preheader ], [ %18, %._crit_edge.loopexit ]
  %19 = add i64 %.0.lcssa, %.1.lcssa
  br label %20

20:                                               ; preds = %.lr.ph46, %._crit_edge
  %.2 = phi i64 [ %19, %._crit_edge ], [ %9, %.lr.ph46 ]
  %21 = getelementptr inbounds nuw i8, ptr %.02644, i64 48
  %.026 = load ptr, ptr %21, align 8
  %.not33 = icmp eq ptr %.026, null
  br i1 %.not33, label %._crit_edge47, label %.lr.ph46

._crit_edge47:                                    ; preds = %20, %7
  %.025.lcssa = phi i64 [ 96, %7 ], [ %.2, %20 ]
  %22 = tail call i32 @pthread_mutex_unlock(ptr noundef nonnull %3) #13
  %.not34 = icmp eq i32 %22, 0
  br i1 %.not34, label %25, label %23

23:                                               ; preds = %._crit_edge47
  %24 = tail call ptr @strerror(i32 noundef %22) #13
  tail call void (ptr, ...) @cli_warnmsg(ptr noundef nonnull @.str.18, i32 noundef %22, ptr noundef %24) #13
  br label %25

25:                                               ; preds = %._crit_edge47, %23, %1, %5
  %.027 = phi i64 [ 96, %5 ], [ 0, %1 ], [ %.025.lcssa, %23 ], [ %.025.lcssa, %._crit_edge47 ]
  ret i64 %.027
}